target datalayout = "e-m:e-p270:32:32-p271:32:32-p272:64:64-i64:64-i128:128-f80:128-n8:16:32:64-S128"
target triple = "x86_64-pc-linux-gnu"

%struct.expert_field = type { i32, i32 }

@hf_hdr_name_value = internal global i32 0, align 4
@ei_wsp_oversized_uintvar = internal global %struct.expert_field zeroinitializer, align 4
@ett_header = internal global i32 0, align 4
@ei_wsp_header_invalid_value = internal global %struct.expert_field zeroinitializer, align 4
@hf_hdr_push_flag = internal global i32 0, align 4
@hf_hdr_push_flag_auth = internal global i32 0, align 4
@hf_hdr_push_flag_trust = internal global i32 0, align 4
@hf_hdr_push_flag_last = internal global i32 0, align 4
@ett_push_flag = internal global i32 0, align 4
@.str.1026 = private unnamed_addr constant [1 x i8] zeroinitializer, align 1
@.str.1145 = private unnamed_addr constant [10 x i8] c"Push Flag\00", align 1
@.str.1146 = private unnamed_addr constant [31 x i8] c" (Initiator URI authenticated)\00", align 1
@.str.1147 = private unnamed_addr constant [19 x i8] c" (Content trusted)\00", align 1
@.str.1148 = private unnamed_addr constant [21 x i8] c" (Last push message)\00", align 1
@.str.1149 = private unnamed_addr constant [31 x i8] c" <Warning: Reserved flags set>\00", align 1

; Function Attrs: null_pointer_is_valid sspstrong uwtable
define internal i32 @wkh_push_flag(ptr noundef %0, ptr noundef %1, i32 noundef %2, ptr noundef %3) #1 {
  %5 = alloca ptr, align 8
  %6 = alloca ptr, align 8
  %7 = alloca i32, align 4
  %8 = alloca ptr, align 8
  %9 = alloca i8, align 1
  %10 = alloca ptr, align 8
  %11 = alloca ptr, align 8
  %12 = alloca i32, align 4
  %13 = alloca i8, align 1
  %14 = alloca i32, align 4
  %15 = alloca i32, align 4
  %16 = alloca i32, align 4
  %17 = alloca ptr, align 8
  %18 = alloca ptr, align 8
  %19 = alloca ptr, align 8
  store ptr %0, ptr %5, align 8
  store ptr %1, ptr %6, align 8
  store i32 %2, ptr %7, align 4
  store ptr %3, ptr %8, align 8
  call void @llvm.lifetime.start.p0(i64 1, ptr %9) #8
  store i8 0, ptr %9, align 1
  call void @llvm.lifetime.start.p0(i64 8, ptr %10) #8
  call void @llvm.lifetime.start.p0(i64 8, ptr %11) #8
  call void @llvm.lifetime.start.p0(i64 4, ptr %12) #8
  %20 = load i32, ptr %7, align 4
  %21 = add i32 %20, 1
  store i32 %21, ptr %12, align 4
  call void @llvm.lifetime.start.p0(i64 1, ptr %13) #8
  %22 = load ptr, ptr %6, align 8
  %23 = load i32, ptr %12, align 4
  %24 = call zeroext i8 @tvb_get_uint8(ptr noundef %22, i32 noundef %23)
  store i8 %24, ptr %13, align 1
  call void @llvm.lifetime.start.p0(i64 4, ptr %14) #8
  %25 = load i32, ptr %12, align 4
  store i32 %25, ptr %14, align 4
  call void @llvm.lifetime.start.p0(i64 4, ptr %15) #8
  call void @llvm.lifetime.start.p0(i64 4, ptr %16) #8
  call void @llvm.lifetime.start.p0(i64 8, ptr %17) #8
  store ptr null, ptr %17, align 8
  call void @llvm.lifetime.start.p0(i64 8, ptr %18) #8
  store ptr null, ptr %18, align 8
  call void @llvm.lifetime.start.p0(i64 8, ptr %19) #8
  %26 = call ptr @wmem_packet_scope()
  %27 = call noalias ptr @wmem_strbuf_new(ptr noundef %26, ptr noundef @.str.1026)
  store ptr %27, ptr %19, align 8
  %28 = load ptr, ptr %5, align 8
  %29 = load ptr, ptr %6, align 8
  %30 = load i32, ptr %7, align 4
  %31 = load i32, ptr %14, align 4
  %32 = load i32, ptr %7, align 4
  %33 = sub i32 %31, %32
  %34 = load i32, ptr @ett_push_flag, align 4
  %35 = call ptr @proto_tree_add_subtree(ptr noundef %28, ptr noundef %29, i32 noundef %30, i32 noundef %33, i32 noundef %34, ptr noundef %11, ptr noundef @.str.1145)
  store ptr %35, ptr %10, align 8
  %36 = load ptr, ptr %10, align 8
  %37 = load i32, ptr @hf_hdr_name_value, align 4
  %38 = load ptr, ptr %6, align 8
  %39 = load i32, ptr %7, align 4
  %40 = call ptr @proto_tree_add_item(ptr noundef %36, i32 noundef %37, ptr noundef %38, i32 noundef %39, i32 noundef 1, i32 noundef 0)
  %41 = load i8, ptr %13, align 1
  %42 = zext i8 %41 to i32
  %43 = and i32 %42, 128
  %44 = icmp ne i32 %43, 0
  br i1 %44, label %45, label %111

45:                                               ; preds = %4
  %46 = load i32, ptr %14, align 4
  %47 = add i32 %46, 1
  store i32 %47, ptr %14, align 4
  %48 = load i8, ptr %13, align 1
  %49 = zext i8 %48 to i32
  %50 = and i32 %49, 1
  %51 = icmp ne i32 %50, 0
  br i1 %51, label %52, label %54

52:                                               ; preds = %45
  %53 = load ptr, ptr %19, align 8
  call void @wmem_strbuf_append(ptr noundef %53, ptr noundef @.str.1146)
  br label %54

54:                                               ; preds = %52, %45
  %55 = load i8, ptr %13, align 1
  %56 = zext i8 %55 to i32
  %57 = and i32 %56, 2
  %58 = icmp ne i32 %57, 0
  br i1 %58, label %59, label %61

59:                                               ; preds = %54
  %60 = load ptr, ptr %19, align 8
  call void @wmem_strbuf_append(ptr noundef %60, ptr noundef @.str.1147)
  br label %61

61:                                               ; preds = %59, %54
  %62 = load i8, ptr %13, align 1
  %63 = zext i8 %62 to i32
  %64 = and i32 %63, 4
  %65 = icmp ne i32 %64, 0
  br i1 %65, label %66, label %68

66:                                               ; preds = %61
  %67 = load ptr, ptr %19, align 8
  call void @wmem_strbuf_append(ptr noundef %67, ptr noundef @.str.1148)
  br label %68

68:                                               ; preds = %66, %61
  %69 = load i8, ptr %13, align 1
  %70 = zext i8 %69 to i32
  %71 = and i32 %70, 120
  %72 = icmp ne i32 %71, 0
  br i1 %72, label %73, label %75

73:                                               ; preds = %68
  %74 = load ptr, ptr %19, align 8
  call void @wmem_strbuf_append(ptr noundef %74, ptr noundef @.str.1149)
  br label %76

75:                                               ; preds = %68
  store i8 1, ptr %9, align 1
  br label %76

76:                                               ; preds = %75, %73
  %77 = load ptr, ptr %5, align 8
  %78 = load i32, ptr @hf_hdr_push_flag, align 4
  %79 = load ptr, ptr %6, align 8
  %80 = load i32, ptr %7, align 4
  %81 = load i32, ptr %14, align 4
  %82 = load i32, ptr %7, align 4
  %83 = sub i32 %81, %82
  %84 = load ptr, ptr %19, align 8
  %85 = call ptr @wmem_strbuf_get_str(ptr noundef %84)
  %86 = call ptr @proto_tree_add_string(ptr noundef %77, i32 noundef %78, ptr noundef %79, i32 noundef %80, i32 noundef %83, ptr noundef %85)
  store ptr %86, ptr %17, align 8
  %87 = load ptr, ptr %17, align 8
  %88 = load i32, ptr @ett_header, align 4
  %89 = call ptr @proto_item_add_subtree(ptr noundef %87, i32 noundef %88)
  store ptr %89, ptr %18, align 8
  %90 = load ptr, ptr %18, align 8
  %91 = load i32, ptr @hf_hdr_push_flag_auth, align 4
  %92 = load ptr, ptr %6, align 8
  %93 = load i32, ptr %12, align 4
  %94 = load i8, ptr %13, align 1
  %95 = zext i8 %94 to i64
  %96 = call ptr @proto_tree_add_boolean(ptr noundef %90, i32 noundef %91, ptr noundef %92, i32 noundef %93, i32 noundef 1, i64 noundef %95)
  %97 = load ptr, ptr %18, align 8
  %98 = load i32, ptr @hf_hdr_push_flag_trust, align 4
  %99 = load ptr, ptr %6, align 8
  %100 = load i32, ptr %12, align 4
  %101 = load i8, ptr %13, align 1
  %102 = zext i8 %101 to i64
  %103 = call ptr @proto_tree_add_boolean(ptr noundef %97, i32 noundef %98, ptr noundef %99, i32 noundef %100, i32 noundef 1, i64 noundef %102)
  %104 = load ptr, ptr %18, align 8
  %105 = load i32, ptr @hf_hdr_push_flag_last, align 4
  %106 = load ptr, ptr %6, align 8
  %107 = load i32, ptr %12, align 4
  %108 = load i8, ptr %13, align 1
  %109 = zext i8 %108 to i64
  %110 = call ptr @proto_tree_add_boolean(ptr noundef %104, i32 noundef %105, ptr noundef %106, i32 noundef %107, i32 noundef 1, i64 noundef %109)
  br label %151

111:                                              ; preds = %4
  %112 = load i8, ptr %13, align 1
  %113 = zext i8 %112 to i32
  %114 = icmp eq i32 %113, 0
  br i1 %114, label %119, label %115

115:                                              ; preds = %111
  %116 = load i8, ptr %13, align 1
  %117 = zext i8 %116 to i32
  %118 = icmp sge i32 %117, 32
  br i1 %118, label %119, label %127

119:                                              ; preds = %115, %111
  %120 = call ptr @wmem_packet_scope()
  %121 = load ptr, ptr %6, align 8
  %122 = load i32, ptr %12, align 4
  %123 = call ptr @tvb_get_stringz_enc(ptr noundef %120, ptr noundef %121, i32 noundef %122, ptr noundef %15, i32 noundef 0)
  %124 = load i32, ptr %12, align 4
  %125 = load i32, ptr %15, align 4
  %126 = add i32 %124, %125
  store i32 %126, ptr %14, align 4
  br label %150

127:                                              ; preds = %115
  %128 = load i8, ptr %13, align 1
  %129 = zext i8 %128 to i32
  %130 = icmp eq i32 %129, 31
  br i1 %130, label %131, label %139

131:                                              ; preds = %127
  %132 = load ptr, ptr %6, align 8
  %133 = load i32, ptr %12, align 4
  %134 = add i32 %133, 1
  %135 = load ptr, ptr %8, align 8
  %136 = call i32 @tvb_get_uintvar(ptr noundef %132, i32 noundef %134, ptr noundef %16, ptr noundef %135, ptr noundef @ei_wsp_oversized_uintvar)
  store i32 %136, ptr %15, align 4
  %137 = load i32, ptr %16, align 4
  %138 = add i32 %137, 1
  store i32 %138, ptr %16, align 4
  br label %144

139:                                              ; preds = %127
  %140 = load ptr, ptr %6, align 8
  %141 = load i32, ptr %14, align 4
  %142 = call zeroext i8 @tvb_get_uint8(ptr noundef %140, i32 noundef %141)
  %143 = zext i8 %142 to i32
  store i32 %143, ptr %15, align 4
  store i32 1, ptr %16, align 4
  br label %144

144:                                              ; preds = %139, %131
  %145 = load i32, ptr %16, align 4
  %146 = load i32, ptr %15, align 4
  %147 = add i32 %145, %146
  %148 = load i32, ptr %14, align 4
  %149 = add i32 %148, %147
  store i32 %149, ptr %14, align 4
  br label %150

150:                                              ; preds = %144, %119
  br label %151

151:                                              ; preds = %150, %76
  %152 = load i8, ptr %9, align 1, !range !6, !noundef !7
  %153 = trunc i8 %152 to i1
  br i1 %153, label %158, label %154

154:                                              ; preds = %151
  %155 = load ptr, ptr %8, align 8
  %156 = load ptr, ptr %11, align 8
  %157 = call ptr @expert_add_info(ptr noundef %155, ptr noundef %156, ptr noundef @ei_wsp_header_invalid_value)
  br label %158

158:                                              ; preds = %154, %151
  %159 = load i32, ptr %14, align 4
  call void @llvm.lifetime.end.p0(i64 8, ptr %19) #8
  call void @llvm.lifetime.end.p0(i64 8, ptr %18) #8
  call void @llvm.lifetime.end.p0(i64 8, ptr %17) #8
  call void @llvm.lifetime.end.p0(i64 4, ptr %16) #8
  call void @llvm.lifetime.end.p0(i64 4, ptr %15) #8
  call void @llvm.lifetime.end.p0(i64 4, ptr %14) #8
  call void @llvm.lifetime.end.p0(i64 1, ptr %13) #8
  call void @llvm.lifetime.end.p0(i64 4, ptr %12) #8
  call void @llvm.lifetime.end.p0(i64 8, ptr %11) #8
  call void @llvm.lifetime.end.p0(i64 8, ptr %10) #8
  call void @llvm.lifetime.end.p0(i64 1, ptr %9) #8
  ret i32 %159
}