; Function Attrs: null_pointer_is_valid sspstrong uwtable
define internal i32 @wkh_push_flag(ptr noundef %0, ptr noundef %1, i32 noundef %2, ptr noundef %3) #1 {
  %5 = alloca ptr, align 8
  %6 = alloca i32, align 4
  %7 = alloca i32, align 4
  call void @llvm.lifetime.start.p0(i64 8, ptr nonnull %5) #5
  %8 = add i32 %2, 1
  %9 = tail call zeroext i8 @tvb_get_uint8(ptr noundef %1, i32 noundef %8)
  call void @llvm.lifetime.start.p0(i64 4, ptr nonnull %6) #5
  call void @llvm.lifetime.start.p0(i64 4, ptr nonnull %7) #5
  %10 = tail call ptr @wmem_packet_scope()
  %11 = tail call noalias ptr @wmem_strbuf_new(ptr noundef %10, ptr noundef nonnull @.str.1026)
  %12 = load i32, ptr @ett_push_flag, align 4
  %13 = call ptr @proto_tree_add_subtree(ptr noundef %0, ptr noundef %1, i32 noundef %2, i32 noundef 1, i32 noundef %12, ptr noundef nonnull %5, ptr noundef nonnull @.str.1145)
  %14 = load i32, ptr @hf_hdr_name_value, align 4
  %15 = call ptr @proto_tree_add_item(ptr noundef %13, i32 noundef %14, ptr noundef %1, i32 noundef %2, i32 noundef 1, i32 noundef 0)
  %16 = zext i8 %9 to i32
  %.not = icmp sgt i8 %9, -1
  br i1 %.not, label %30, label %17

17:                                               ; preds = %4
  %18 = add i32 %2, 2
  %19 = and i32 %16, 1
  %.not59 = icmp eq i32 %19, 0
  br i1 %.not59, label %21, label %20

20:                                               ; preds = %17
  call void @wmem_strbuf_append(ptr noundef %11, ptr noundef nonnull @.str.1146)
  br label %21

21:                                               ; preds = %20, %17
  %22 = and i32 %16, 2
  %.not60 = icmp eq i32 %22, 0
  br i1 %.not60, label %24, label %23

23:                                               ; preds = %21
  call void @wmem_strbuf_append(ptr noundef %11, ptr noundef nonnull @.str.1147)
  br label %24

24:                                               ; preds = %23, %21
  %25 = and i32 %16, 4
  %.not61 = icmp eq i32 %25, 0
  br i1 %.not61, label %27, label %26

26:                                               ; preds = %24
  call void @wmem_strbuf_append(ptr noundef %11, ptr noundef nonnull @.str.1148)
  br label %27

27:                                               ; preds = %26, %24
  %28 = and i32 %16, 120
  %.not62 = icmp eq i32 %28, 0
  br i1 %.not62, label %50, label %29

29:                                               ; preds = %27
  call void @wmem_strbuf_append(ptr noundef %11, ptr noundef nonnull @.str.1149)
  br label %50

30:                                               ; preds = %4
  %31 = add nsw i8 %9, -32
  %or.cond = icmp ult i8 %31, -31
  br i1 %or.cond, label %32, label %37

32:                                               ; preds = %30
  %33 = call ptr @wmem_packet_scope()
  %34 = call ptr @tvb_get_stringz_enc(ptr noundef %33, ptr noundef %1, i32 noundef %8, ptr noundef nonnull %6, i32 noundef 0)
  %35 = load i32, ptr %6, align 4
  %36 = add i32 %35, %8
  br label %.thread

37:                                               ; preds = %30
  %38 = icmp eq i8 %9, 31
  br i1 %38, label %39, label %44

39:                                               ; preds = %37
  %40 = add i32 %2, 2
  %41 = call i32 @tvb_get_uintvar(ptr noundef %1, i32 noundef %40, ptr noundef nonnull %7, ptr noundef %3, ptr noundef nonnull @ei_wsp_oversized_uintvar)
  %42 = load i32, ptr %7, align 4
  %43 = add i32 %42, 1
  br label %47

44:                                               ; preds = %37
  %45 = call zeroext i8 @tvb_get_uint8(ptr noundef %1, i32 noundef %8)
  %46 = zext i8 %45 to i32
  br label %47

47:                                               ; preds = %44, %39
  %.sink = phi i32 [ %41, %39 ], [ %46, %44 ]
  %storemerge = phi i32 [ %43, %39 ], [ 1, %44 ]
  store i32 %.sink, ptr %6, align 4
  store i32 %storemerge, ptr %7, align 4
  %48 = add i32 %storemerge, %8
  %49 = add i32 %48, %.sink
  br label %.thread

50:                                               ; preds = %29, %27
  %51 = load i32, ptr @hf_hdr_push_flag, align 4
  %52 = call ptr @wmem_strbuf_get_str(ptr noundef %11)
  %53 = call ptr @proto_tree_add_string(ptr noundef %0, i32 noundef %51, ptr noundef %1, i32 noundef %2, i32 noundef 2, ptr noundef %52)
  %54 = load i32, ptr @ett_header, align 4
  %55 = call ptr @proto_item_add_subtree(ptr noundef %53, i32 noundef %54)
  %56 = load i32, ptr @hf_hdr_push_flag_auth, align 4
  %57 = zext i8 %9 to i64
  %58 = call ptr @proto_tree_add_boolean(ptr noundef %55, i32 noundef %56, ptr noundef %1, i32 noundef %8, i32 noundef 1, i64 noundef %57)
  %59 = load i32, ptr @hf_hdr_push_flag_trust, align 4
  %60 = call ptr @proto_tree_add_boolean(ptr noundef %55, i32 noundef %59, ptr noundef %1, i32 noundef %8, i32 noundef 1, i64 noundef %57)
  %61 = load i32, ptr @hf_hdr_push_flag_last, align 4
  %62 = call ptr @proto_tree_add_boolean(ptr noundef %55, i32 noundef %61, ptr noundef %1, i32 noundef %8, i32 noundef 1, i64 noundef %57)
  br i1 %.not62, label %65, label %.thread

.thread:                                          ; preds = %47, %32, %50
  %.05765 = phi i32 [ %18, %50 ], [ %49, %47 ], [ %36, %32 ]
  %63 = load ptr, ptr %5, align 8
  %64 = call ptr @expert_add_info(ptr noundef %3, ptr noundef %63, ptr noundef nonnull @ei_wsp_header_invalid_value)
  br label %65

65:                                               ; preds = %.thread, %50
  %.05766 = phi i32 [ %.05765, %.thread ], [ %18, %50 ]
  call void @llvm.lifetime.end.p0(i64 4, ptr nonnull %7) #5
  call void @llvm.lifetime.end.p0(i64 4, ptr nonnull %6) #5
  call void @llvm.lifetime.end.p0(i64 8, ptr nonnull %5) #5
  ret i32 %.05766
}